target datalayout = "e-m:e-p270:32:32-p271:32:32-p272:64:64-i64:64-i128:128-f80:128-n8:16:32:64-S128"
target triple = "x86_64-pc-linux-gnu"

%class.G1CardSetAllocator = type { %class.G1MonotonicArena, %class.FreeListAllocator }
%class.G1MonotonicArena = type { %class.FreeListConfig, ptr, ptr, ptr, i32, i64, ptr, i32, i32 }
%class.FreeListConfig = type { ptr, i64 }
%class.FreeListAllocator = type { ptr, [120 x i8], i64, [120 x i8], %class.LockFreeStack, [120 x i8], i8, [127 x i8], i32, [2 x %"class.FreeListAllocator::PendingList"] }
%class.LockFreeStack = type { ptr }
%"class.FreeListAllocator::PendingList" = type { ptr, ptr, i64 }
%class.G1CardSetMemoryManager = type { ptr, ptr, ptr }
%class.G1MonotonicArenaMemoryStats = type { [4 x i64], [4 x i64] }
%"struct.Atomic::LoadImpl" = type { i8 }
%"struct.Atomic::PlatformLoad" = type { i8 }

; Function Attrs: mustprogress nounwind uwtable
define linkonce_odr hidden noundef i32 @_ZNK6Atomic12PlatformLoadILm4EEclIjEET_PVKS3_(ptr noundef nonnull align 1 dereferenceable(1) %0, ptr noundef %1) #1 comdat align 2 {
  %3 = alloca ptr, align 8
  %4 = alloca ptr, align 8
  store ptr %0, ptr %3, align 8
  store ptr %1, ptr %4, align 8
  %5 = load ptr, ptr %4, align 8
  %6 = load volatile i32, ptr %5, align 4
  ret i32 %6
}

; Function Attrs: mustprogress nounwind uwtable
define linkonce_odr hidden noundef i32 @_ZNK6Atomic8LoadImplIjNS_12PlatformLoadILm4EEEvEclEPVKj(ptr noundef nonnull align 1 dereferenceable(1) %0, ptr noundef %1) #1 comdat align 2 {
  %3 = alloca ptr, align 8
  %4 = alloca ptr, align 8
  %5 = alloca %"struct.Atomic::PlatformLoad", align 1
  store ptr %0, ptr %3, align 8
  store ptr %1, ptr %4, align 8
  %6 = load ptr, ptr %4, align 8
  %7 = call noundef i32 @_ZNK6Atomic12PlatformLoadILm4EEclIjEET_PVKS3_(ptr noundef nonnull align 1 dereferenceable(1) %5, ptr noundef %6)
  ret i32 %7
}

; Function Attrs: mustprogress nounwind uwtable
define linkonce_odr hidden noundef i32 @_ZN6Atomic4loadIjEET_PVKS1_(ptr noundef %0) #1 comdat align 2 {
  %2 = alloca ptr, align 8
  %3 = alloca %"struct.Atomic::LoadImpl", align 1
  store ptr %0, ptr %2, align 8
  %4 = load ptr, ptr %2, align 8
  %5 = call noundef i32 @_ZNK6Atomic8LoadImplIjNS_12PlatformLoadILm4EEEvEclEPVKj(ptr noundef nonnull align 1 dereferenceable(1) %3, ptr noundef %4)
  ret i32 %5
}

; Function Attrs: mustprogress nounwind uwtable
define linkonce_odr hidden noundef i32 @_ZNK16G1MonotonicArena15num_total_slotsEv(ptr noundef nonnull align 8 dereferenceable(72) %0) #1 comdat align 2 {
  %2 = alloca ptr, align 8
  store ptr %0, ptr %2, align 8
  %3 = load ptr, ptr %2, align 8
  %4 = getelementptr inbounds %class.G1MonotonicArena, ptr %3, i32 0, i32 7
  %5 = call noundef i32 @_ZN6Atomic4loadIjEET_PVKS1_(ptr noundef %4)
  ret i32 %5
}

; Function Attrs: mustprogress nounwind uwtable
define linkonce_odr hidden noundef i32 @_ZN22G1CardSetConfiguration20num_mem_object_typesEv() #1 comdat align 2 {
  ret i32 4
}

; Function Attrs: mustprogress nounwind uwtable
define hidden noundef i32 @_ZNK18G1CardSetAllocator12num_segmentsEv(ptr noundef nonnull align 8 dereferenceable(640) %0) #1 align 2 {
  %2 = alloca ptr, align 8
  store ptr %0, ptr %2, align 8
  %3 = load ptr, ptr %2, align 8
  %4 = getelementptr inbounds %class.G1CardSetAllocator, ptr %3, i32 0, i32 0
  %5 = call noundef i32 @_ZNK16G1MonotonicArena12num_segmentsEv(ptr noundef nonnull align 8 dereferenceable(72) %4)
  ret i32 %5
}

; Function Attrs: mustprogress nounwind uwtable
define hidden noundef i64 @_ZNK18G1CardSetAllocator8mem_sizeEv(ptr noundef nonnull align 8 dereferenceable(640) %0) #1 align 2 {
  %2 = alloca ptr, align 8
  store ptr %0, ptr %2, align 8
  %3 = load ptr, ptr %2, align 8
  %4 = call noundef i32 @_ZNK18G1CardSetAllocator12num_segmentsEv(ptr noundef nonnull align 8 dereferenceable(640) %3)
  %5 = zext i32 %4 to i64
  %6 = mul i64 %5, 32
  %7 = add i64 640, %6
  %8 = getelementptr inbounds %class.G1CardSetAllocator, ptr %3, i32 0, i32 0
  %9 = call noundef i32 @_ZNK16G1MonotonicArena15num_total_slotsEv(ptr noundef nonnull align 8 dereferenceable(72) %8)
  %10 = getelementptr inbounds %class.G1CardSetAllocator, ptr %3, i32 0, i32 0
  %11 = call noundef i32 @_ZNK16G1MonotonicArena9slot_sizeEv(ptr noundef nonnull align 8 dereferenceable(72) %10)
  %12 = mul i32 %9, %11
  %13 = zext i32 %12 to i64
  %14 = add i64 %7, %13
  ret i64 %14
}

; Function Attrs: mustprogress nounwind uwtable
define hidden noundef i32 @_ZNK22G1CardSetMemoryManager20num_mem_object_typesEv(ptr noundef nonnull align 8 dereferenceable(24) %0) #1 align 2 {
  %2 = alloca ptr, align 8
  store ptr %0, ptr %2, align 8
  %3 = call noundef i32 @_ZN22G1CardSetConfiguration20num_mem_object_typesEv()
  ret i32 %3
}

; Function Attrs: mustprogress nounwind uwtable
define hidden void @_ZNK22G1CardSetMemoryManager12memory_statsEv(ptr dead_on_unwind noalias writable sret(%class.G1MonotonicArenaMemoryStats) align 8 %0, ptr noundef nonnull align 8 dereferenceable(24) %1) #1 align 2 {
  %3 = alloca ptr, align 8
  %4 = alloca i32, align 4
  store ptr %1, ptr %3, align 8
  %5 = load ptr, ptr %3, align 8
  call void @_ZN27G1MonotonicArenaMemoryStatsC1Ev(ptr noundef nonnull align 8 dereferenceable(64) %0)
  store i32 0, ptr %4, align 4
  br label %6

6:                                                ; preds = %36, %2
  %7 = load i32, ptr %4, align 4
  %8 = call noundef i32 @_ZNK22G1CardSetMemoryManager20num_mem_object_typesEv(ptr noundef nonnull align 8 dereferenceable(24) %5)
  %9 = icmp ult i32 %7, %8
  br i1 %9, label %10, label %39

10:                                               ; preds = %6
  %11 = getelementptr inbounds %class.G1CardSetMemoryManager, ptr %5, i32 0, i32 2
  %12 = load ptr, ptr %11, align 8
  %13 = load i32, ptr %4, align 4
  %14 = zext i32 %13 to i64
  %15 = getelementptr inbounds %class.G1CardSetAllocator, ptr %12, i64 %14
  %16 = call noundef i64 @_ZNK18G1CardSetAllocator8mem_sizeEv(ptr noundef nonnull align 8 dereferenceable(640) %15)
  %17 = getelementptr inbounds %class.G1MonotonicArenaMemoryStats, ptr %0, i32 0, i32 0
  %18 = load i32, ptr %4, align 4
  %19 = zext i32 %18 to i64
  %20 = getelementptr inbounds [4 x i64], ptr %17, i64 0, i64 %19
  %21 = load i64, ptr %20, align 8
  %22 = add i64 %21, %16
  store i64 %22, ptr %20, align 8
  %23 = getelementptr inbounds %class.G1CardSetMemoryManager, ptr %5, i32 0, i32 2
  %24 = load ptr, ptr %23, align 8
  %25 = load i32, ptr %4, align 4
  %26 = zext i32 %25 to i64
  %27 = getelementptr inbounds %class.G1CardSetAllocator, ptr %24, i64 %26
  %28 = call noundef i32 @_ZNK18G1CardSetAllocator12num_segmentsEv(ptr noundef nonnull align 8 dereferenceable(640) %27)
  %29 = zext i32 %28 to i64
  %30 = getelementptr inbounds %class.G1MonotonicArenaMemoryStats, ptr %0, i32 0, i32 1
  %31 = load i32, ptr %4, align 4
  %32 = zext i32 %31 to i64
  %33 = getelementptr inbounds [4 x i64], ptr %30, i64 0, i64 %32
  %34 = load i64, ptr %33, align 8
  %35 = add i64 %34, %29
  store i64 %35, ptr %33, align 8
  br label %36

36:                                               ; preds = %10
  %37 = load i32, ptr %4, align 4
  %38 = add i32 %37, 1
  store i32 %38, ptr %4, align 4
  br label %6, !llvm.loop !12

39:                                               ; preds = %6
  ret void
}