; Function Attrs: mustprogress nounwind uwtable
define hidden void @_ZNK22G1CardSetMemoryManager12memory_statsEv(ptr dead_on_unwind noalias nonnull writable sret(%class.G1MonotonicArenaMemoryStats) align 8 %0, ptr nocapture noundef nonnull readonly align 8 dereferenceable(24) %1) local_unnamed_addr #0 align 2 {
  tail call void @_ZN27G1MonotonicArenaMemoryStatsC1Ev(ptr noundef nonnull align 8 dereferenceable(64) %0) #4
  %3 = getelementptr inbounds i8, ptr %1, i64 16
  %4 = getelementptr inbounds i8, ptr %0, i64 32
  br label %5

5:                                                ; preds = %2, %5
  %indvars.iv = phi i64 [ 0, %2 ], [ %indvars.iv.next, %5 ]
  %6 = load ptr, ptr %3, align 8
  %7 = getelementptr inbounds %class.G1CardSetAllocator, ptr %6, i64 %indvars.iv
  %8 = tail call noundef i32 @_ZNK16G1MonotonicArena12num_segmentsEv(ptr noundef nonnull align 8 dereferenceable(72) %7) #4
  %9 = zext i32 %8 to i64
  %10 = shl nuw nsw i64 %9, 5
  %11 = add nuw nsw i64 %10, 640
  %12 = getelementptr inbounds i8, ptr %7, i64 64
  %13 = load volatile i32, ptr %12, align 4
  %14 = tail call noundef i32 @_ZNK16G1MonotonicArena9slot_sizeEv(ptr noundef nonnull align 8 dereferenceable(72) %7) #4
  %15 = mul i32 %14, %13
  %16 = zext i32 %15 to i64
  %17 = getelementptr inbounds [4 x i64], ptr %0, i64 0, i64 %indvars.iv
  %18 = load i64, ptr %17, align 8
  %19 = add i64 %11, %18
  %20 = add i64 %19, %16
  store i64 %20, ptr %17, align 8
  %21 = load ptr, ptr %3, align 8
  %22 = getelementptr inbounds %class.G1CardSetAllocator, ptr %21, i64 %indvars.iv
  %23 = tail call noundef i32 @_ZNK16G1MonotonicArena12num_segmentsEv(ptr noundef nonnull align 8 dereferenceable(72) %22) #4
  %24 = zext i32 %23 to i64
  %25 = getelementptr inbounds [4 x i64], ptr %4, i64 0, i64 %indvars.iv
  %26 = load i64, ptr %25, align 8
  %27 = add i64 %26, %24
  store i64 %27, ptr %25, align 8
  %indvars.iv.next = add nuw nsw i64 %indvars.iv, 1
  %exitcond.not = icmp eq i64 %indvars.iv.next, 4
  br i1 %exitcond.not, label %28, label %5, !llvm.loop !12

28:                                               ; preds = %5
  ret void
}